target datalayout = "e-m:e-p270:32:32-p271:32:32-p272:64:64-i64:64-i128:128-f80:128-n8:16:32:64-S128"
target triple = "x86_64-pc-linux-gnu"

@_ZN5folly8external8farmhash4test25returnZeroIfMisconfiguredE = global i8 0, align 1

; Function Attrs: mustprogress nounwind uwtable
define noundef i32 @_ZN5folly8external8farmhash10farmhashsa6Hash32EPKcm(ptr noundef %0, i64 noundef %1) #4 {
  %3 = alloca i32, align 4
  %4 = alloca ptr, align 8
  %5 = alloca i64, align 8
  store ptr %0, ptr %4, align 8, !tbaa !7
  store i64 %1, ptr %5, align 8, !tbaa !12
  br label %6

6:                                                ; preds = %2
  %7 = load i8, ptr @_ZN5folly8external8farmhash4test25returnZeroIfMisconfiguredE, align 1, !tbaa !34, !range !36, !noundef !37
  %8 = trunc i8 %7 to i1
  br i1 %8, label %9, label %10

9:                                                ; preds = %6
  store i32 0, ptr %3, align 4
  br label %20

10:                                               ; preds = %6
  call void @_ZSt9terminatev() #9
  unreachable

11:                                               ; No predecessors!
  %12 = load ptr, ptr %4, align 8, !tbaa !7
  %13 = icmp eq ptr %12, null
  br i1 %13, label %14, label %15

14:                                               ; preds = %11
  br label %17

15:                                               ; preds = %11
  %16 = load i64, ptr %5, align 8, !tbaa !12
  br label %17

17:                                               ; preds = %15, %14
  %18 = phi i64 [ 0, %14 ], [ %16, %15 ]
  %19 = trunc i64 %18 to i32
  store i32 %19, ptr %3, align 4
  br label %20

20:                                               ; preds = %17, %9
  %21 = load i32, ptr %3, align 4
  ret i32 %21
}